Certificate:
    Data:
        Version: 1 (0x0)
        Serial Number: 1 (0x1)
    Signature Algorithm: md5WithRSAEncryption
        Issuer: C=pl, ST=Mazowieckie, L=Warszawa, O=Cert Aut, OU=Main, CN=CA/emailAddress=ca@ca.pl
        Validity
            Not Before: Jun  7 13:30:26 2015 GMT
            Not After : Jun  6 13:30:26 2016 GMT
        Subject: C=pl, ST=Mazowieckie, L=Warszawa, O=Karol Corp, OU=Karol Place, CN=KC/emailAddress=karol.karol.pl
        Subject Public Key Info:
            Public Key Algorithm: rsaEncryption
                Public-Key: (1024 bit)
                Modulus:
                    00:98:92:48:bb:2c:00:da:1d:52:90:74:25:92:96:
                    15:85:af:59:a5:cc:e3:42:28:6a:31:52:0d:13:42:
                    94:8c:b7:2f:f4:ab:fb:45:e8:11:94:cf:cb:43:ee:
                    79:17:79:54:24:3d:29:5d:d6:ea:6f:45:64:b6:d7:
                    cc:85:f1:42:ac:2d:1a:e8:f3:95:5c:68:af:48:e4:
                    2a:e1:7b:87:35:82:3b:23:a6:9f:7d:d5:bb:47:14:
                    6c:17:01:d2:f5:9e:74:a8:22:21:ed:da:7f:ef:c6:
                    14:8a:12:2f:62:47:25:34:03:a3:08:c9:d0:87:4c:
                    ec:01:db:2f:43:83:e1:3b:fd
                Exponent: 65537 (0x10001)
    Signature Algorithm: md5WithRSAEncryption
         6c:6c:b8:a0:00:99:9f:6c:76:2f:08:60:3b:9c:2d:f6:e2:b3:
         c5:57:20:19:dc:fc:29:c3:a6:51:c5:03:4c:2f:65:d0:1c:dd:
         a2:dd:6e:41:f1:6c:82:9c:5e:b4:10:74:6e:69:0b:85:ae:32:
         84:39:21:8f:3c:ac:91:f1:b3:0a:bb:f5:97:b7:18:ce:55:e8:
         ec:16:ac:56:fa:76:11:80:53:af:81:52:4e:5c:e4:2d:6b:f5:
         55:ad:e6:0f:ac:e6:7e:a3:2c:f3:c5:14:d1:14:e7:d0:d4:55:
         5c:fc:7b:3a:92:25:ac:fa:d2:7e:9a:ed:7f:50:81:25:c4:bc:
         1d:b7
-----BEGIN CERTIFICATE-----
MIICezCCAeQCAQEwDQYJKoZIhvcNAQEEBQAwfjELMAkGA1UEBhMCcGwxFDASBgNV
BAgMC01hem93aWVja2llMREwDwYDVQQHDAhXYXJzemF3YTERMA8GA1UECgwIQ2Vy
dCBBdXQxDTALBgNVBAsMBE1haW4xCzAJBgNVBAMMAkNBMRcwFQYJKoZIhvcNAQkB
FghjYUBjYS5wbDAeFw0xNTA2MDcxMzMwMjZaFw0xNjA2MDYxMzMwMjZaMIGNMQsw
CQYDVQQGEwJwbDEUMBIGA1UECAwLTWF6b3dpZWNraWUxETAPBgNVBAcMCFdhcnN6
YXdhMRMwEQYDVQQKDApLYXJvbCBDb3JwMRQwEgYDVQQLDAtLYXJvbCBQbGFjZTEL
MAkGA1UEAwwCS0MxHTAbBgkqhkiG9w0BCQEWDmthcm9sLmthcm9sLnBsMIGfMA0G
CSqGSIb3DQEBAQUAA4GNADCBiQKBgQCYkki7LADaHVKQdCWSlhWFr1mlzONCKGox
Ug0TQpSMty/0q/tF6BGUz8tD7nkXeVQkPSld1upvRWS218yF8UKsLRro85VcaK9I
5Crhe4c1gjsjpp991btHFGwXAdL1nnSoIiHt2n/vxhSKEi9iRyU0A6MIydCHTOwB
2y9Dg+E7/QIDAQABMA0GCSqGSIb3DQEBBAUAA4GBAGxsuKAAmZ9sdi8IYDucLfbi
s8VXIBnc/CnDplHFA0wvZdAc3aLdbkHxbIKcXrQQdG5pC4WuMoQ5IY88rJHxswq7
9Ze3GM5V6OwWrFb6dhGAU6+BUk5c5C1r9VWt5g+s5n6jLPPFFNEU59DUVVz8ezqS
Jaz60n6a7X9QgSXEvB23
-----END CERTIFICATE-----
