Certificate:
    Data:
        Version: 1 (0x0)
        Serial Number: 2 (0x2)
    Signature Algorithm: md5WithRSAEncryption
        Issuer: C=pl, ST=Mazowieckie, L=Warszawa, O=Cert Aut, OU=Main, CN=CA/emailAddress=ca@ca.pl
        Validity
            Not Before: Jun 10 09:49:24 2015 GMT
            Not After : Jun  9 09:49:24 2016 GMT
        Subject: C=pl, ST=Mazowieckie, L=Warszawa, O=Karol Corp, OU=Karol Works, CN=Karol/emailAddress=karol@karol.pl
        Subject Public Key Info:
            Public Key Algorithm: rsaEncryption
                Public-Key: (1024 bit)
                Modulus:
                    00:c6:ed:b1:3c:49:ca:04:43:26:84:d8:30:60:01:
                    23:6b:91:d7:8e:f8:81:69:e5:83:5f:88:3e:d6:56:
                    c1:47:7b:74:1d:61:20:2c:71:65:6e:30:cf:d4:a4:
                    41:be:5b:bd:92:d1:94:2a:fb:a0:b5:36:b0:9c:a2:
                    ae:4b:87:2d:cd:be:0c:ac:71:a5:ba:4b:3b:13:d6:
                    e8:13:a0:c0:a5:87:01:b6:4b:f3:78:cf:5c:39:6c:
                    12:3f:f9:5e:6b:c2:05:93:9e:c0:37:94:65:4a:de:
                    8a:75:ed:7b:3a:61:79:1c:ab:aa:4b:6b:a2:2b:d0:
                    d3:21:f8:39:31:02:85:5c:c5
                Exponent: 65537 (0x10001)
    Signature Algorithm: md5WithRSAEncryption
         6a:d2:53:cb:d8:49:21:1c:ab:5d:d7:eb:bf:69:20:b1:c9:c2:
         a0:7b:b9:23:13:c3:d3:91:0d:72:09:ae:34:de:f6:b8:c6:9c:
         a6:fc:2e:2f:bd:ec:97:af:7c:c6:a1:9e:86:18:ca:80:f7:0e:
         28:90:60:ec:1b:8d:49:b4:6a:8a:3d:a7:33:43:33:34:76:9e:
         50:4e:30:28:23:54:3b:6d:9a:63:4e:f8:01:15:3c:62:25:59:
         7f:fd:a0:00:6c:3b:b0:b8:cb:50:88:ec:02:2f:32:7d:cc:b9:
         f5:f3:fa:a3:d8:0a:2f:50:f5:41:4e:24:e4:17:97:06:08:38:
         a4:f4
-----BEGIN CERTIFICATE-----
MIICfjCCAecCAQIwDQYJKoZIhvcNAQEEBQAwfjELMAkGA1UEBhMCcGwxFDASBgNV
BAgMC01hem93aWVja2llMREwDwYDVQQHDAhXYXJzemF3YTERMA8GA1UECgwIQ2Vy
dCBBdXQxDTALBgNVBAsMBE1haW4xCzAJBgNVBAMMAkNBMRcwFQYJKoZIhvcNAQkB
FghjYUBjYS5wbDAeFw0xNTA2MTAwOTQ5MjRaFw0xNjA2MDkwOTQ5MjRaMIGQMQsw
CQYDVQQGEwJwbDEUMBIGA1UECAwLTWF6b3dpZWNraWUxETAPBgNVBAcMCFdhcnN6
YXdhMRMwEQYDVQQKDApLYXJvbCBDb3JwMRQwEgYDVQQLDAtLYXJvbCBXb3JrczEO
MAwGA1UEAwwFS2Fyb2wxHTAbBgkqhkiG9w0BCQEWDmthcm9sQGthcm9sLnBsMIGf
MA0GCSqGSIb3DQEBAQUAA4GNADCBiQKBgQDG7bE8ScoEQyaE2DBgASNrkdeO+IFp
5YNfiD7WVsFHe3QdYSAscWVuMM/UpEG+W72S0ZQq+6C1NrCcoq5Lhy3NvgyscaW6
SzsT1ugToMClhwG2S/N4z1w5bBI/+V5rwgWTnsA3lGVK3op17Xs6YXkcq6pLa6Ir
0NMh+DkxAoVcxQIDAQABMA0GCSqGSIb3DQEBBAUAA4GBAGrSU8vYSSEcq13X679p
ILHJwqB7uSMTw9ORDXIJrjTe9rjGnKb8Li+97JevfMahnoYYyoD3DiiQYOwbjUm0
aoo9pzNDMzR2nlBOMCgjVDttmmNO+AEVPGIlWX/9oABsO7C4y1CI7AIvMn3MufXz
+qPYCi9Q9UFOJOQXlwYIOKT0
-----END CERTIFICATE-----
